; Function Attrs: mustprogress nofree norecurse nosync nounwind willreturn memory(read, inaccessiblemem: none) uwtable
define hidden i32 @ncnn_layer_get_top_count(ptr nocapture noundef readonly %0) local_unnamed_addr #13 {
  %2 = load ptr, ptr %0, align 8
  %3 = getelementptr inbounds nuw i8, ptr %2, i64 136
  %4 = getelementptr inbounds i8, ptr %2, i64 144
  %5 = load ptr, ptr %4, align 8
  %6 = load ptr, ptr %3, align 8
  %7 = ptrtoint ptr %5 to i64
  %8 = ptrtoint ptr %6 to i64
  %9 = sub i64 %7, %8
  %10 = lshr exact i64 %9, 2
  %11 = trunc i64 %10 to i32
  ret i32 %11
}